target datalayout = "e-m:e-p270:32:32-p271:32:32-p272:64:64-i64:64-i128:128-f80:128-n8:16:32:64-S128"
target triple = "x86_64-unknown-linux-gnu"

%class.btCompoundShape = type { %class.btCollisionShape, %class.btAlignedObjectArray, %class.btVector3, %class.btVector3, ptr, i32, float, %class.btVector3 }
%class.btCollisionShape = type { ptr, i32, ptr, i32, i32 }
%class.btAlignedObjectArray = type <{ %class.btAlignedAllocator, [3 x i8], i32, i32, [4 x i8], ptr, i8, [7 x i8] }>
%class.btAlignedAllocator = type { i8 }
%class.btVector3 = type { [4 x float] }
%struct.btCompoundShapeChild = type { %class.btTransform, ptr, i32, float, ptr }
%class.btTransform = type { %class.btMatrix3x3, %class.btVector3 }
%class.btMatrix3x3 = type { [3 x %class.btVector3] }
%struct.btDbvtAabbMm = type { %class.btVector3, %class.btVector3 }

; Function Attrs: mustprogress uwtable
define linkonce_odr dso_local void @_ZN12btDbvtAabbMmC2Ev(ptr noundef nonnull align 4 dereferenceable(32) %this) unnamed_addr #2 comdat align 2 {
entry:
  %this.addr = alloca ptr, align 8
  store ptr %this, ptr %this.addr, align 8
  %this1 = load ptr, ptr %this.addr, align 8
  %mi = getelementptr inbounds %struct.btDbvtAabbMm, ptr %this1, i32 0, i32 0
  call void @_ZN9btVector3C2Ev(ptr noundef nonnull align 4 dereferenceable(16) %mi)
  %mx = getelementptr inbounds %struct.btDbvtAabbMm, ptr %this1, i32 0, i32 1
  call void @_ZN9btVector3C2Ev(ptr noundef nonnull align 4 dereferenceable(16) %mx)
  ret void
}

; Function Attrs: mustprogress uwtable
define linkonce_odr dso_local void @_ZN12btDbvtAabbMm6FromMMERK9btVector3S2_(ptr noalias sret(%struct.btDbvtAabbMm) align 4 %agg.result, ptr noundef nonnull align 4 dereferenceable(16) %mi, ptr noundef nonnull align 4 dereferenceable(16) %mx) #2 comdat align 2 {
entry:
  %mi.addr = alloca ptr, align 8
  %mx.addr = alloca ptr, align 8
  store ptr %mi, ptr %mi.addr, align 8
  store ptr %mx, ptr %mx.addr, align 8
  call void @_ZN12btDbvtAabbMmC2Ev(ptr noundef nonnull align 4 dereferenceable(32) %agg.result)
  %0 = load ptr, ptr %mi.addr, align 8
  %mi1 = getelementptr inbounds %struct.btDbvtAabbMm, ptr %agg.result, i32 0, i32 0
  call void @llvm.memcpy.p0.p0.i64(ptr align 4 %mi1, ptr align 4 %0, i64 16, i1 false)
  %1 = load ptr, ptr %mx.addr, align 8
  %mx2 = getelementptr inbounds %struct.btDbvtAabbMm, ptr %agg.result, i32 0, i32 1
  call void @llvm.memcpy.p0.p0.i64(ptr align 4 %mx2, ptr align 4 %1, i64 16, i1 false)
  ret void
}

; Function Attrs: mustprogress nounwind uwtable
define linkonce_odr dso_local void @_ZN9btVector3C2Ev(ptr noundef nonnull align 4 dereferenceable(16) %this) unnamed_addr #1 comdat align 2 {
entry:
  %this.addr = alloca ptr, align 8
  store ptr %this, ptr %this.addr, align 8
  ret void
}

; Function Attrs: mustprogress nounwind uwtable
define linkonce_odr dso_local noundef nonnull align 8 dereferenceable(88) ptr @_ZN20btAlignedObjectArrayI20btCompoundShapeChildEixEi(ptr noundef nonnull align 8 dereferenceable(25) %this, i32 noundef %n) #1 comdat align 2 {
entry:
  %this.addr = alloca ptr, align 8
  %n.addr = alloca i32, align 4
  store ptr %this, ptr %this.addr, align 8
  store i32 %n, ptr %n.addr, align 4
  %this1 = load ptr, ptr %this.addr, align 8
  %m_data = getelementptr inbounds %class.btAlignedObjectArray, ptr %this1, i32 0, i32 5
  %0 = load ptr, ptr %m_data, align 8
  %1 = load i32, ptr %n.addr, align 4
  %idxprom = sext i32 %1 to i64
  %arrayidx = getelementptr inbounds %struct.btCompoundShapeChild, ptr %0, i64 %idxprom
  ret ptr %arrayidx
}

; Function Attrs: mustprogress nounwind uwtable
define linkonce_odr dso_local noundef i32 @_ZNK20btAlignedObjectArrayI20btCompoundShapeChildE4sizeEv(ptr noundef nonnull align 8 dereferenceable(25) %this) #1 comdat align 2 {
entry:
  %this.addr = alloca ptr, align 8
  store ptr %this, ptr %this.addr, align 8
  %this1 = load ptr, ptr %this.addr, align 8
  %m_size = getelementptr inbounds %class.btAlignedObjectArray, ptr %this1, i32 0, i32 2
  %0 = load i32, ptr %m_size, align 4
  ret i32 %0
}

; Function Attrs: mustprogress uwtable
define dso_local void @_ZN15btCompoundShape26createAabbTreeFromChildrenEv(ptr noundef nonnull align 8 dereferenceable(128) %this) #2 align 2 {
entry:
  %this.addr = alloca ptr, align 8
  %mem = alloca ptr, align 8
  %index = alloca i32, align 4
  %child = alloca ptr, align 8
  %localAabbMin = alloca %class.btVector3, align 4
  %localAabbMax = alloca %class.btVector3, align 4
  %bounds = alloca %struct.btDbvtAabbMm, align 4
  %index2 = alloca i64, align 8
  store ptr %this, ptr %this.addr, align 8
  %this1 = load ptr, ptr %this.addr, align 8
  %m_dynamicAabbTree = getelementptr inbounds %class.btCompoundShape, ptr %this1, i32 0, i32 4
  %0 = load ptr, ptr %m_dynamicAabbTree, align 8
  %tobool = icmp ne ptr %0, null
  br i1 %tobool, label %if.end, label %if.then

if.then:                                          ; preds = %entry
  %call = call noundef ptr @_Z22btAlignedAllocInternalmi(i64 noundef 64, i32 noundef 16)
  store ptr %call, ptr %mem, align 8
  %1 = load ptr, ptr %mem, align 8
  call void @_ZN6btDbvtC1Ev(ptr noundef nonnull align 8 dereferenceable(64) %1)
  %m_dynamicAabbTree2 = getelementptr inbounds %class.btCompoundShape, ptr %this1, i32 0, i32 4
  store ptr %1, ptr %m_dynamicAabbTree2, align 8
  store i32 0, ptr %index, align 4
  br label %for.cond

for.cond:                                         ; preds = %for.inc, %if.then
  %2 = load i32, ptr %index, align 4
  %m_children = getelementptr inbounds %class.btCompoundShape, ptr %this1, i32 0, i32 1
  %call3 = call noundef i32 @_ZNK20btAlignedObjectArrayI20btCompoundShapeChildE4sizeEv(ptr noundef nonnull align 8 dereferenceable(25) %m_children)
  %cmp = icmp slt i32 %2, %call3
  br i1 %cmp, label %for.body, label %for.end

for.body:                                         ; preds = %for.cond
  %m_children4 = getelementptr inbounds %class.btCompoundShape, ptr %this1, i32 0, i32 1
  %3 = load i32, ptr %index, align 4
  %call5 = call noundef nonnull align 8 dereferenceable(88) ptr @_ZN20btAlignedObjectArrayI20btCompoundShapeChildEixEi(ptr noundef nonnull align 8 dereferenceable(25) %m_children4, i32 noundef %3)
  store ptr %call5, ptr %child, align 8
  call void @_ZN9btVector3C2Ev(ptr noundef nonnull align 4 dereferenceable(16) %localAabbMin)
  call void @_ZN9btVector3C2Ev(ptr noundef nonnull align 4 dereferenceable(16) %localAabbMax)
  %4 = load ptr, ptr %child, align 8
  %m_childShape = getelementptr inbounds %struct.btCompoundShapeChild, ptr %4, i32 0, i32 1
  %5 = load ptr, ptr %m_childShape, align 8
  %6 = load ptr, ptr %child, align 8
  %m_transform = getelementptr inbounds %struct.btCompoundShapeChild, ptr %6, i32 0, i32 0
  %vtable = load ptr, ptr %5, align 8
  %vfn = getelementptr inbounds ptr, ptr %vtable, i64 2
  %7 = load ptr, ptr %vfn, align 8
  call void %7(ptr noundef nonnull align 8 dereferenceable(32) %5, ptr noundef nonnull align 4 dereferenceable(64) %m_transform, ptr noundef nonnull align 4 dereferenceable(16) %localAabbMin, ptr noundef nonnull align 4 dereferenceable(16) %localAabbMax)
  call void @_ZN12btDbvtAabbMm6FromMMERK9btVector3S2_(ptr sret(%struct.btDbvtAabbMm) align 4 %bounds, ptr noundef nonnull align 4 dereferenceable(16) %localAabbMin, ptr noundef nonnull align 4 dereferenceable(16) %localAabbMax)
  %8 = load i32, ptr %index, align 4
  %conv = sext i32 %8 to i64
  store i64 %conv, ptr %index2, align 8
  %m_dynamicAabbTree6 = getelementptr inbounds %class.btCompoundShape, ptr %this1, i32 0, i32 4
  %9 = load ptr, ptr %m_dynamicAabbTree6, align 8
  %10 = load i64, ptr %index2, align 8
  %11 = inttoptr i64 %10 to ptr
  %call7 = call noundef ptr @_ZN6btDbvt6insertERK12btDbvtAabbMmPv(ptr noundef nonnull align 8 dereferenceable(64) %9, ptr noundef nonnull align 4 dereferenceable(32) %bounds, ptr noundef %11)
  %12 = load ptr, ptr %child, align 8
  %m_node = getelementptr inbounds %struct.btCompoundShapeChild, ptr %12, i32 0, i32 4
  store ptr %call7, ptr %m_node, align 8
  br label %for.inc

for.inc:                                          ; preds = %for.body
  %13 = load i32, ptr %index, align 4
  %inc = add nsw i32 %13, 1
  store i32 %inc, ptr %index, align 4
  br label %for.cond, !llvm.loop !15

for.end:                                          ; preds = %for.cond
  br label %if.end

if.end:                                           ; preds = %for.end, %entry
  ret void
}