; Function Attrs: mustprogress uwtable
define dso_local void @_ZN15btCompoundShape26createAabbTreeFromChildrenEv(ptr nocapture noundef nonnull align 8 dereferenceable(128) %this) local_unnamed_addr #0 align 2 {
entry:
  %localAabbMin = alloca %class.btVector3, align 4
  %localAabbMax = alloca %class.btVector3, align 4
  %bounds = alloca %struct.btDbvtAabbMm, align 4
  %m_dynamicAabbTree = getelementptr inbounds i8, ptr %this, i64 96
  %0 = load ptr, ptr %m_dynamicAabbTree, align 8
  %tobool.not = icmp eq ptr %0, null
  br i1 %tobool.not, label %if.then, label %if.end

if.then:                                          ; preds = %entry
  %call = tail call noundef ptr @_Z22btAlignedAllocInternalmi(i64 noundef 64, i32 noundef 16)
  tail call void @_ZN6btDbvtC1Ev(ptr noundef nonnull align 8 dereferenceable(64) %call)
  store ptr %call, ptr %m_dynamicAabbTree, align 8
  %m_size.i = getelementptr inbounds i8, ptr %this, i64 36
  %1 = load i32, ptr %m_size.i, align 4
  %cmp6 = icmp sgt i32 %1, 0
  br i1 %cmp6, label %for.body.lr.ph, label %if.end

for.body.lr.ph:                                   ; preds = %if.then
  %m_data.i = getelementptr inbounds i8, ptr %this, i64 48
  %mx2.i = getelementptr inbounds i8, ptr %bounds, i64 16
  br label %for.body

for.body:                                         ; preds = %for.body.lr.ph, %for.body
  %indvars.iv = phi i64 [ 0, %for.body.lr.ph ], [ %indvars.iv.next, %for.body ]
  %2 = load ptr, ptr %m_data.i, align 8
  %arrayidx.i = getelementptr inbounds %struct.btCompoundShapeChild, ptr %2, i64 %indvars.iv
  %m_childShape = getelementptr inbounds i8, ptr %arrayidx.i, i64 64
  %3 = load ptr, ptr %m_childShape, align 8
  %vtable = load ptr, ptr %3, align 8
  %vfn = getelementptr inbounds i8, ptr %vtable, i64 16
  %4 = load ptr, ptr %vfn, align 8
  call void %4(ptr noundef nonnull align 8 dereferenceable(32) %3, ptr noundef nonnull align 4 dereferenceable(64) %arrayidx.i, ptr noundef nonnull align 4 dereferenceable(16) %localAabbMin, ptr noundef nonnull align 4 dereferenceable(16) %localAabbMax)
  call void @llvm.memcpy.p0.p0.i64(ptr noundef nonnull align 4 dereferenceable(16) %bounds, ptr noundef nonnull align 4 dereferenceable(16) %localAabbMin, i64 16, i1 false)
  call void @llvm.memcpy.p0.p0.i64(ptr noundef nonnull align 4 dereferenceable(16) %mx2.i, ptr noundef nonnull align 4 dereferenceable(16) %localAabbMax, i64 16, i1 false)
  %5 = load ptr, ptr %m_dynamicAabbTree, align 8
  %6 = inttoptr i64 %indvars.iv to ptr
  %call7 = call noundef ptr @_ZN6btDbvt6insertERK12btDbvtAabbMmPv(ptr noundef nonnull align 8 dereferenceable(64) %5, ptr noundef nonnull align 4 dereferenceable(32) %bounds, ptr noundef %6)
  %m_node = getelementptr inbounds i8, ptr %arrayidx.i, i64 80
  store ptr %call7, ptr %m_node, align 8
  %indvars.iv.next = add nuw nsw i64 %indvars.iv, 1
  %7 = load i32, ptr %m_size.i, align 4
  %8 = sext i32 %7 to i64
  %cmp = icmp slt i64 %indvars.iv.next, %8
  br i1 %cmp, label %for.body, label %if.end, !llvm.loop !17

if.end:                                           ; preds = %for.body, %if.then, %entry
  ret void
}